target datalayout = "e-m:e-p270:32:32-p271:32:32-p272:64:64-i64:64-i128:128-f80:128-n8:16:32:64-S128"
target triple = "x86_64-pc-linux-gnu"

%struct.Nwk_Man_t_ = type { ptr, ptr, ptr, ptr, ptr, [5 x i32], i32, ptr, ptr, ptr, ptr, ptr, i32, i32, i32, i32, i32 }
%struct.Vec_Ptr_t_ = type { i32, i32, ptr }
%struct.Nwk_Obj_t_ = type { ptr, ptr, ptr, %union.anon, i32, i32, i32, i32, float, float, float, i32, i32, i32, ptr }
%union.anon = type { ptr }
%struct.Vec_Int_t_ = type { i32, i32, ptr }
%struct.Aig_Obj_t_ = type { %union.anon.0, ptr, ptr, i64, i32, i32, %union.anon.1 }
%union.anon.0 = type { ptr }
%union.anon.1 = type { ptr }

; Function Attrs: inlinehint nounwind uwtable
define internal void @Vec_IntFree(ptr noundef %0) #4 {
  %2 = alloca ptr, align 8
  store ptr %0, ptr %2, align 8, !tbaa !58
  %3 = load ptr, ptr %2, align 8, !tbaa !58
  %4 = getelementptr inbounds nuw %struct.Vec_Int_t_, ptr %3, i32 0, i32 2
  %5 = load ptr, ptr %4, align 8, !tbaa !60
  %6 = icmp ne ptr %5, null
  br i1 %6, label %7, label %13

7:                                                ; preds = %1
  %8 = load ptr, ptr %2, align 8, !tbaa !58
  %9 = getelementptr inbounds nuw %struct.Vec_Int_t_, ptr %8, i32 0, i32 2
  %10 = load ptr, ptr %9, align 8, !tbaa !60
  call void @free(ptr noundef %10) #9
  %11 = load ptr, ptr %2, align 8, !tbaa !58
  %12 = getelementptr inbounds nuw %struct.Vec_Int_t_, ptr %11, i32 0, i32 2
  store ptr null, ptr %12, align 8, !tbaa !60
  br label %14

13:                                               ; preds = %1
  br label %14

14:                                               ; preds = %13, %7
  %15 = load ptr, ptr %2, align 8, !tbaa !58
  %16 = icmp ne ptr %15, null
  br i1 %16, label %17, label %19

17:                                               ; preds = %14
  %18 = load ptr, ptr %2, align 8, !tbaa !58
  call void @free(ptr noundef %18) #9
  store ptr null, ptr %2, align 8, !tbaa !58
  br label %20

19:                                               ; preds = %14
  br label %20

20:                                               ; preds = %19, %17
  ret void
}

; Function Attrs: inlinehint nounwind uwtable
define internal i32 @Nwk_ObjFanoutNum(ptr noundef %0) #4 {
  %2 = alloca ptr, align 8
  store ptr %0, ptr %2, align 8, !tbaa !33
  %3 = load ptr, ptr %2, align 8, !tbaa !33
  %4 = getelementptr inbounds nuw %struct.Nwk_Obj_t_, ptr %3, i32 0, i32 12
  %5 = load i32, ptr %4, align 8, !tbaa !71
  ret i32 %5
}

; Function Attrs: inlinehint nounwind uwtable
define internal ptr @Aig_Regular(ptr noundef %0) #4 {
  %2 = alloca ptr, align 8
  store ptr %0, ptr %2, align 8, !tbaa !66
  %3 = load ptr, ptr %2, align 8, !tbaa !66
  %4 = ptrtoint ptr %3 to i64
  %5 = and i64 %4, -2
  %6 = inttoptr i64 %5 to ptr
  ret ptr %6
}

; Function Attrs: inlinehint nounwind uwtable
define internal ptr @Vec_PtrEntry(ptr noundef %0, i32 noundef %1) #4 {
  %3 = alloca ptr, align 8
  %4 = alloca i32, align 4
  store ptr %0, ptr %3, align 8, !tbaa !24
  store i32 %1, ptr %4, align 4, !tbaa !23
  %5 = load ptr, ptr %3, align 8, !tbaa !24
  %6 = getelementptr inbounds nuw %struct.Vec_Ptr_t_, ptr %5, i32 0, i32 2
  %7 = load ptr, ptr %6, align 8, !tbaa !28
  %8 = load i32, ptr %4, align 4, !tbaa !23
  %9 = sext i32 %8 to i64
  %10 = getelementptr inbounds ptr, ptr %7, i64 %9
  %11 = load ptr, ptr %10, align 8, !tbaa !40
  ret ptr %11
}

; Function Attrs: inlinehint nounwind uwtable
define internal i32 @Vec_PtrSize(ptr noundef %0) #4 {
  %2 = alloca ptr, align 8
  store ptr %0, ptr %2, align 8, !tbaa !24
  %3 = load ptr, ptr %2, align 8, !tbaa !24
  %4 = getelementptr inbounds nuw %struct.Vec_Ptr_t_, ptr %3, i32 0, i32 1
  %5 = load i32, ptr %4, align 4, !tbaa !25
  ret i32 %5
}

; Function Attrs: nounwind uwtable
define float @Nwl_ManComputeTotalSwitching(ptr noundef %0) #0 {
  %2 = alloca ptr, align 8
  %3 = alloca ptr, align 8
  %4 = alloca ptr, align 8
  %5 = alloca ptr, align 8
  %6 = alloca ptr, align 8
  %7 = alloca ptr, align 8
  %8 = alloca float, align 4
  %9 = alloca i32, align 4
  store ptr %0, ptr %2, align 8, !tbaa !3
  call void @llvm.lifetime.start.p0(i64 8, ptr %3) #9
  call void @llvm.lifetime.start.p0(i64 8, ptr %4) #9
  call void @llvm.lifetime.start.p0(i64 8, ptr %5) #9
  call void @llvm.lifetime.start.p0(i64 8, ptr %6) #9
  call void @llvm.lifetime.start.p0(i64 8, ptr %7) #9
  call void @llvm.lifetime.start.p0(i64 4, ptr %8) #9
  store float 0.000000e+00, ptr %8, align 4, !tbaa !55
  call void @llvm.lifetime.start.p0(i64 4, ptr %9) #9
  %10 = load ptr, ptr %2, align 8, !tbaa !3
  %11 = call ptr @Nwk_ManStrash(ptr noundef %10)
  store ptr %11, ptr %5, align 8, !tbaa !56
  %12 = load ptr, ptr %5, align 8, !tbaa !56
  %13 = call ptr @Saig_ManComputeSwitchProbs(ptr noundef %12, i32 noundef 48, i32 noundef 16, i32 noundef 0)
  store ptr %13, ptr %3, align 8, !tbaa !58
  %14 = load ptr, ptr %3, align 8, !tbaa !58
  %15 = getelementptr inbounds nuw %struct.Vec_Int_t_, ptr %14, i32 0, i32 2
  %16 = load ptr, ptr %15, align 8, !tbaa !60
  store ptr %16, ptr %4, align 8, !tbaa !63
  store i32 0, ptr %9, align 4, !tbaa !23
  br label %17

17:                                               ; preds = %57, %1
  %18 = load i32, ptr %9, align 4, !tbaa !23
  %19 = load ptr, ptr %2, align 8, !tbaa !3
  %20 = getelementptr inbounds nuw %struct.Nwk_Man_t_, ptr %19, i32 0, i32 4
  %21 = load ptr, ptr %20, align 8, !tbaa !18
  %22 = call i32 @Vec_PtrSize(ptr noundef %21)
  %23 = icmp slt i32 %18, %22
  br i1 %23, label %24, label %30

24:                                               ; preds = %17
  %25 = load ptr, ptr %2, align 8, !tbaa !3
  %26 = getelementptr inbounds nuw %struct.Nwk_Man_t_, ptr %25, i32 0, i32 4
  %27 = load ptr, ptr %26, align 8, !tbaa !18
  %28 = load i32, ptr %9, align 4, !tbaa !23
  %29 = call ptr @Vec_PtrEntry(ptr noundef %27, i32 noundef %28)
  store ptr %29, ptr %7, align 8, !tbaa !33
  br label %30

30:                                               ; preds = %24, %17
  %31 = phi i1 [ false, %17 ], [ true, %24 ]
  br i1 %31, label %32, label %60

32:                                               ; preds = %30
  %33 = load ptr, ptr %7, align 8, !tbaa !33
  %34 = icmp eq ptr %33, null
  br i1 %34, label %35, label %36

35:                                               ; preds = %32
  br label %56

36:                                               ; preds = %32
  %37 = load ptr, ptr %7, align 8, !tbaa !33
  %38 = getelementptr inbounds nuw %struct.Nwk_Obj_t_, ptr %37, i32 0, i32 2
  %39 = load ptr, ptr %38, align 8, !tbaa !65
  %40 = call ptr @Aig_Regular(ptr noundef %39)
  store ptr %40, ptr %6, align 8, !tbaa !66
  %41 = icmp ne ptr %40, null
  br i1 %41, label %42, label %55

42:                                               ; preds = %36
  %43 = load ptr, ptr %7, align 8, !tbaa !33
  %44 = call i32 @Nwk_ObjFanoutNum(ptr noundef %43)
  %45 = sitofp i32 %44 to float
  %46 = load ptr, ptr %4, align 8, !tbaa !63
  %47 = load ptr, ptr %6, align 8, !tbaa !66
  %48 = getelementptr inbounds nuw %struct.Aig_Obj_t_, ptr %47, i32 0, i32 5
  %49 = load i32, ptr %48, align 4, !tbaa !68
  %50 = sext i32 %49 to i64
  %51 = getelementptr inbounds float, ptr %46, i64 %50
  %52 = load float, ptr %51, align 4, !tbaa !55
  %53 = load float, ptr %8, align 4, !tbaa !55
  %54 = call float @llvm.fmuladd.f32(float %45, float %52, float %53)
  store float %54, ptr %8, align 4, !tbaa !55
  br label %55

55:                                               ; preds = %42, %36
  br label %56

56:                                               ; preds = %55, %35
  br label %57

57:                                               ; preds = %56
  %58 = load i32, ptr %9, align 4, !tbaa !23
  %59 = add nsw i32 %58, 1
  store i32 %59, ptr %9, align 4, !tbaa !23
  br label %17, !llvm.loop !70

60:                                               ; preds = %30
  %61 = load ptr, ptr %3, align 8, !tbaa !58
  call void @Vec_IntFree(ptr noundef %61)
  %62 = load ptr, ptr %5, align 8, !tbaa !56
  call void @Aig_ManStop(ptr noundef %62)
  %63 = load float, ptr %8, align 4, !tbaa !55
  call void @llvm.lifetime.end.p0(i64 4, ptr %9) #9
  call void @llvm.lifetime.end.p0(i64 4, ptr %8) #9
  call void @llvm.lifetime.end.p0(i64 8, ptr %7) #9
  call void @llvm.lifetime.end.p0(i64 8, ptr %6) #9
  call void @llvm.lifetime.end.p0(i64 8, ptr %5) #9
  call void @llvm.lifetime.end.p0(i64 8, ptr %4) #9
  call void @llvm.lifetime.end.p0(i64 8, ptr %3) #9
  ret float %63
}