; Function Attrs: nounwind uwtable
define float @Nwl_ManComputeTotalSwitching(ptr noundef %0) local_unnamed_addr #0 {
  %2 = tail call ptr @Nwk_ManStrash(ptr noundef %0) #15
  %3 = tail call ptr @Saig_ManComputeSwitchProbs(ptr noundef %2, i32 noundef 48, i32 noundef 16, i32 noundef 0) #15
  %4 = getelementptr inbounds nuw i8, ptr %3, i64 8
  %5 = load ptr, ptr %4, align 8, !tbaa !47
  %6 = getelementptr inbounds nuw i8, ptr %0, i64 32
  %7 = load ptr, ptr %6, align 8, !tbaa !20
  %8 = getelementptr i8, ptr %7, i64 4
  %.val = load i32, ptr %8, align 4, !tbaa !3
  %9 = icmp sgt i32 %.val, 0
  br i1 %9, label %.lr.ph, label %.critedge

.lr.ph:                                           ; preds = %1
  %10 = getelementptr i8, ptr %7, i64 8
  %.val19 = load ptr, ptr %10, align 8, !tbaa !10
  %wide.trip.count = zext nneg i32 %.val to i64
  br label %11

11:                                               ; preds = %.lr.ph, %30
  %indvars.iv = phi i64 [ 0, %.lr.ph ], [ %indvars.iv.next, %30 ]
  %.01621 = phi float [ 0.000000e+00, %.lr.ph ], [ %.1, %30 ]
  %12 = getelementptr inbounds nuw ptr, ptr %.val19, i64 %indvars.iv
  %13 = load ptr, ptr %12, align 8, !tbaa !28
  %14 = icmp eq ptr %13, null
  br i1 %14, label %30, label %15

15:                                               ; preds = %11
  %16 = getelementptr inbounds nuw i8, ptr %13, i64 16
  %17 = load ptr, ptr %16, align 8, !tbaa !50
  %18 = ptrtoint ptr %17 to i64
  %19 = and i64 %18, -2
  %.not = icmp eq i64 %19, 0
  br i1 %.not, label %30, label %20

20:                                               ; preds = %15
  %21 = inttoptr i64 %19 to ptr
  %22 = getelementptr i8, ptr %13, i64 64
  %.val20 = load i32, ptr %22, align 8, !tbaa !51
  %23 = sitofp i32 %.val20 to float
  %24 = getelementptr inbounds nuw i8, ptr %21, i64 36
  %25 = load i32, ptr %24, align 4, !tbaa !52
  %26 = sext i32 %25 to i64
  %27 = getelementptr inbounds float, ptr %5, i64 %26
  %28 = load float, ptr %27, align 4, !tbaa !55
  %29 = tail call float @llvm.fmuladd.f32(float %23, float %28, float %.01621)
  br label %30

30:                                               ; preds = %11, %20, %15
  %.1 = phi float [ %.01621, %11 ], [ %29, %20 ], [ %.01621, %15 ]
  %indvars.iv.next = add nuw nsw i64 %indvars.iv, 1
  %exitcond.not = icmp eq i64 %indvars.iv.next, %wide.trip.count
  br i1 %exitcond.not, label %.critedge, label %11, !llvm.loop !56

.critedge:                                        ; preds = %30, %1
  %.016.lcssa = phi float [ 0.000000e+00, %1 ], [ %.1, %30 ]
  %.not.i = icmp eq ptr %5, null
  br i1 %.not.i, label %Vec_IntFree.exit, label %31

31:                                               ; preds = %.critedge
  tail call void @free(ptr noundef nonnull %5) #15
  br label %Vec_IntFree.exit

Vec_IntFree.exit:                                 ; preds = %.critedge, %31
  tail call void @free(ptr noundef nonnull %3) #15
  tail call void @Aig_ManStop(ptr noundef %2) #15
  ret float %.016.lcssa
}